target datalayout = "e-m:e-p270:32:32-p271:32:32-p272:64:64-i64:64-i128:128-f80:128-n8:16:32:64-S128"
target triple = "x86_64-pc-linux-gnu"

%struct.lua_State = type { ptr, i8, i8, i8, i8, i16, %union.StkIdRel, ptr, ptr, %union.StkIdRel, %union.StkIdRel, ptr, %union.StkIdRel, ptr, ptr, ptr, %struct.CallInfo, ptr, i64, i32, i32, i32, i32, i32, %struct.anon.3 }
%union.StkIdRel = type { ptr }
%struct.CallInfo = type { %union.StkIdRel, %union.StkIdRel, ptr, ptr, %union.anon, %union.anon.2, i32 }
%union.anon = type { %struct.anon.1 }
%struct.anon.1 = type { ptr, i64, i64 }
%union.anon.2 = type { i32 }
%struct.anon.3 = type { i32, i32 }

; Function Attrs: nounwind uwtable
define internal i32 @stackinuse(ptr noundef %0) #0 {
  %2 = alloca ptr, align 8
  %3 = alloca ptr, align 8
  %4 = alloca i32, align 4
  %5 = alloca ptr, align 8
  store ptr %0, ptr %2, align 8, !tbaa !4
  call void @llvm.lifetime.start.p0(i64 8, ptr %3) #11
  call void @llvm.lifetime.start.p0(i64 4, ptr %4) #11
  call void @llvm.lifetime.start.p0(i64 8, ptr %5) #11
  %6 = load ptr, ptr %2, align 8, !tbaa !4
  %7 = getelementptr inbounds nuw %struct.lua_State, ptr %6, i32 0, i32 6
  %8 = load ptr, ptr %7, align 8, !tbaa !34
  store ptr %8, ptr %5, align 8, !tbaa !11
  %9 = load ptr, ptr %2, align 8, !tbaa !4
  %10 = getelementptr inbounds nuw %struct.lua_State, ptr %9, i32 0, i32 8
  %11 = load ptr, ptr %10, align 8, !tbaa !53
  store ptr %11, ptr %3, align 8, !tbaa !54
  br label %12

12:                                               ; preds = %26, %1
  %13 = load ptr, ptr %3, align 8, !tbaa !54
  %14 = icmp ne ptr %13, null
  br i1 %14, label %15, label %30

15:                                               ; preds = %12
  %16 = load ptr, ptr %5, align 8, !tbaa !11
  %17 = load ptr, ptr %3, align 8, !tbaa !54
  %18 = getelementptr inbounds nuw %struct.CallInfo, ptr %17, i32 0, i32 1
  %19 = load ptr, ptr %18, align 8, !tbaa !34
  %20 = icmp ult ptr %16, %19
  br i1 %20, label %21, label %25

21:                                               ; preds = %15
  %22 = load ptr, ptr %3, align 8, !tbaa !54
  %23 = getelementptr inbounds nuw %struct.CallInfo, ptr %22, i32 0, i32 1
  %24 = load ptr, ptr %23, align 8, !tbaa !34
  store ptr %24, ptr %5, align 8, !tbaa !11
  br label %25

25:                                               ; preds = %21, %15
  br label %26

26:                                               ; preds = %25
  %27 = load ptr, ptr %3, align 8, !tbaa !54
  %28 = getelementptr inbounds nuw %struct.CallInfo, ptr %27, i32 0, i32 2
  %29 = load ptr, ptr %28, align 8, !tbaa !55
  store ptr %29, ptr %3, align 8, !tbaa !54
  br label %12

30:                                               ; preds = %12
  %31 = load ptr, ptr %5, align 8, !tbaa !11
  %32 = load ptr, ptr %2, align 8, !tbaa !4
  %33 = getelementptr inbounds nuw %struct.lua_State, ptr %32, i32 0, i32 10
  %34 = load ptr, ptr %33, align 8, !tbaa !34
  %35 = ptrtoint ptr %31 to i64
  %36 = ptrtoint ptr %34 to i64
  %37 = sub i64 %35, %36
  %38 = sdiv exact i64 %37, 16
  %39 = trunc i64 %38 to i32
  %40 = add nsw i32 %39, 1
  store i32 %40, ptr %4, align 4, !tbaa !9
  %41 = load i32, ptr %4, align 4, !tbaa !9
  %42 = icmp slt i32 %41, 20
  br i1 %42, label %43, label %44

43:                                               ; preds = %30
  store i32 20, ptr %4, align 4, !tbaa !9
  br label %44

44:                                               ; preds = %43, %30
  %45 = load i32, ptr %4, align 4, !tbaa !9
  call void @llvm.lifetime.end.p0(i64 8, ptr %5) #11
  call void @llvm.lifetime.end.p0(i64 4, ptr %4) #11
  call void @llvm.lifetime.end.p0(i64 8, ptr %3) #11
  ret i32 %45
}

; Function Attrs: nounwind uwtable
define hidden void @luaD_shrinkstack(ptr noundef %0) #0 {
  %2 = alloca ptr, align 8
  %3 = alloca i32, align 4
  %4 = alloca i32, align 4
  %5 = alloca i32, align 4
  store ptr %0, ptr %2, align 8, !tbaa !4
  call void @llvm.lifetime.start.p0(i64 4, ptr %3) #11
  %6 = load ptr, ptr %2, align 8, !tbaa !4
  %7 = call i32 @stackinuse(ptr noundef %6)
  store i32 %7, ptr %3, align 4, !tbaa !9
  call void @llvm.lifetime.start.p0(i64 4, ptr %4) #11
  %8 = load i32, ptr %3, align 4, !tbaa !9
  %9 = icmp sgt i32 %8, 333333
  br i1 %9, label %10, label %11

10:                                               ; preds = %1
  br label %14

11:                                               ; preds = %1
  %12 = load i32, ptr %3, align 4, !tbaa !9
  %13 = mul nsw i32 %12, 3
  br label %14

14:                                               ; preds = %11, %10
  %15 = phi i32 [ 1000000, %10 ], [ %13, %11 ]
  store i32 %15, ptr %4, align 4, !tbaa !9
  %16 = load i32, ptr %3, align 4, !tbaa !9
  %17 = icmp sle i32 %16, 1000000
  br i1 %17, label %18, label %44

18:                                               ; preds = %14
  %19 = load ptr, ptr %2, align 8, !tbaa !4
  %20 = getelementptr inbounds nuw %struct.lua_State, ptr %19, i32 0, i32 9
  %21 = load ptr, ptr %20, align 8, !tbaa !34
  %22 = load ptr, ptr %2, align 8, !tbaa !4
  %23 = getelementptr inbounds nuw %struct.lua_State, ptr %22, i32 0, i32 10
  %24 = load ptr, ptr %23, align 8, !tbaa !34
  %25 = ptrtoint ptr %21 to i64
  %26 = ptrtoint ptr %24 to i64
  %27 = sub i64 %25, %26
  %28 = sdiv exact i64 %27, 16
  %29 = trunc i64 %28 to i32
  %30 = load i32, ptr %4, align 4, !tbaa !9
  %31 = icmp sgt i32 %29, %30
  br i1 %31, label %32, label %44

32:                                               ; preds = %18
  call void @llvm.lifetime.start.p0(i64 4, ptr %5) #11
  %33 = load i32, ptr %3, align 4, !tbaa !9
  %34 = icmp sgt i32 %33, 500000
  br i1 %34, label %35, label %36

35:                                               ; preds = %32
  br label %39

36:                                               ; preds = %32
  %37 = load i32, ptr %3, align 4, !tbaa !9
  %38 = mul nsw i32 %37, 2
  br label %39

39:                                               ; preds = %36, %35
  %40 = phi i32 [ 1000000, %35 ], [ %38, %36 ]
  store i32 %40, ptr %5, align 4, !tbaa !9
  %41 = load ptr, ptr %2, align 8, !tbaa !4
  %42 = load i32, ptr %5, align 4, !tbaa !9
  %43 = call i32 @luaD_reallocstack(ptr noundef %41, i32 noundef %42, i32 noundef 0)
  call void @llvm.lifetime.end.p0(i64 4, ptr %5) #11
  br label %45

44:                                               ; preds = %18, %14
  br label %45

45:                                               ; preds = %44, %39
  %46 = load ptr, ptr %2, align 8, !tbaa !4
  call void @luaE_shrinkCI(ptr noundef %46)
  call void @llvm.lifetime.end.p0(i64 4, ptr %4) #11
  call void @llvm.lifetime.end.p0(i64 4, ptr %3) #11
  ret void
}