; Function Attrs: nounwind uwtable
define hidden void @luaD_shrinkstack(ptr noundef %0) local_unnamed_addr #0 {
  %2 = getelementptr inbounds nuw i8, ptr %0, i64 16
  %3 = load ptr, ptr %2, align 8, !tbaa !27
  %4 = getelementptr inbounds nuw i8, ptr %0, i64 32
  %.01012.i = load ptr, ptr %4, align 8, !tbaa !41
  %.not13.i = icmp eq ptr %.01012.i, null
  br i1 %.not13.i, label %stackinuse.exit, label %.lr.ph.i

.lr.ph.i:                                         ; preds = %1, %.lr.ph.i
  %.01015.i = phi ptr [ %.010.i, %.lr.ph.i ], [ %.01012.i, %1 ]
  %.014.i = phi ptr [ %spec.select.i, %.lr.ph.i ], [ %3, %1 ]
  %5 = getelementptr inbounds nuw i8, ptr %.01015.i, i64 8
  %6 = load ptr, ptr %5, align 8, !tbaa !27
  %7 = icmp ult ptr %.014.i, %6
  %spec.select.i = select i1 %7, ptr %6, ptr %.014.i
  %8 = getelementptr inbounds nuw i8, ptr %.01015.i, i64 16
  %.010.i = load ptr, ptr %8, align 8, !tbaa !41
  %.not.i = icmp eq ptr %.010.i, null
  br i1 %.not.i, label %stackinuse.exit, label %.lr.ph.i

stackinuse.exit:                                  ; preds = %.lr.ph.i, %1
  %.0.lcssa.i = phi ptr [ %3, %1 ], [ %spec.select.i, %.lr.ph.i ]
  %9 = getelementptr inbounds nuw i8, ptr %0, i64 48
  %10 = load ptr, ptr %9, align 8, !tbaa !27
  %11 = ptrtoint ptr %.0.lcssa.i to i64
  %12 = ptrtoint ptr %10 to i64
  %13 = sub i64 %11, %12
  %14 = lshr exact i64 %13, 4
  %15 = trunc i64 %14 to i32
  %16 = tail call i32 @llvm.smax.i32(i32 %15, i32 19)
  %spec.store.select.i = add nuw nsw i32 %16, 1
  %17 = icmp slt i32 %15, 1000000
  br i1 %17, label %18, label %33

18:                                               ; preds = %stackinuse.exit
  %19 = icmp sgt i32 %15, 333332
  %20 = mul nuw nsw i32 %spec.store.select.i, 3
  %21 = select i1 %19, i32 1000000, i32 %20
  %22 = getelementptr inbounds nuw i8, ptr %0, i64 40
  %23 = load ptr, ptr %22, align 8, !tbaa !27
  %24 = ptrtoint ptr %23 to i64
  %25 = sub i64 %24, %12
  %26 = lshr exact i64 %25, 4
  %27 = trunc i64 %26 to i32
  %28 = icmp slt i32 %21, %27
  br i1 %28, label %29, label %33

29:                                               ; preds = %18
  %30 = tail call i32 @llvm.umin.i32(i32 %spec.store.select.i, i32 500000)
  %31 = shl nuw nsw i32 %30, 1
  %32 = tail call i32 @luaD_reallocstack(ptr noundef nonnull %0, i32 noundef %31, i32 noundef 0)
  br label %33

33:                                               ; preds = %stackinuse.exit, %18, %29
  tail call void @luaE_shrinkCI(ptr noundef nonnull %0) #13
  ret void
}